target datalayout = "e-m:e-p270:32:32-p271:32:32-p272:64:64-i64:64-i128:128-f80:128-n8:16:32:64-S128"
target triple = "x86_64-unknown-linux-gnu"

%struct.SCSISense = type { i8, i8, i8 }
%struct.SCSIDiskState = type { %struct.SCSIDevice, i32, i8, i8, i8, i16, i64, i64, i32, ptr, ptr, ptr, ptr, ptr, ptr, i8, i8, i16 }
%struct.SCSIDevice = type { %struct.DeviceState, ptr, ptr, i32, %struct.BlockConf, %struct.SCSISense, i8, [252 x i8], i32, %union.anon, i32, i32, i32, i32, i64, i64, i64, i32, i32, i32, i8, i8 }
%struct.DeviceState = type { %struct.Object, ptr, ptr, i8, i8, i64, ptr, i32, i8, ptr, %struct.NamedGPIOListHead, %struct.NamedClockListHead, %struct.BusStateHead, i32, i32, i32, %struct.ResettableState, ptr, %struct.MemReentrancyGuard }
%struct.Object = type { ptr, ptr, ptr, i32, ptr }
%struct.NamedGPIOListHead = type { ptr }
%struct.NamedClockListHead = type { ptr }
%struct.BusStateHead = type { ptr }
%struct.ResettableState = type { i32, i8, i8 }
%struct.MemReentrancyGuard = type { i8 }
%struct.BlockConf = type { ptr, i32, i32, i32, i32, i32, i32, i32, i32, i32, i32, i32, i32, i32, i32, i8, i32, i32, i32, i32 }
%union.anon = type { %struct.QTailQLink }
%struct.QTailQLink = type { ptr, ptr }
%struct.SCSIDiskReq = type { %struct.SCSIRequest, i64, i32, i32, i8, i8, %struct.iovec, %struct.QEMUIOVector, %struct.BlockAcctCookie }
%struct.SCSIRequest = type { ptr, ptr, ptr, i32, i32, i32, i16, i16, ptr, i64, %struct.SCSICommand, %struct.NotifierList, [252 x i8], i32, i8, i8, i8, i8, ptr, ptr, %union.anon.0 }
%struct.SCSICommand = type { [16 x i8], i32, i64, i64, i32 }
%struct.NotifierList = type { %struct.anon }
%struct.anon = type { ptr }
%union.anon.0 = type { %struct.QTailQLink }
%struct.iovec = type { ptr, i64 }
%struct.QEMUIOVector = type { ptr, i32, %union.anon.1 }
%union.anon.1 = type { %struct.anon.2 }
%struct.anon.2 = type { i32, %struct.iovec }
%struct.BlockAcctCookie = type { i64, i64, i32 }
%struct.anon.3 = type { [12 x i8], i64 }
%struct.timeval = type { i64, i64 }

@.str.5 = private unnamed_addr constant [28 x i8] c"../qemu/hw/scsi/scsi-disk.c\00", align 1
@trace_events_enabled_count = external global i32, align 4
@message_with_timestamp = external global i8, align 1
@qemu_loglevel = external global i32, align 4
@.str.26 = private unnamed_addr constant [21 x i8] c"r->req.aiocb == NULL\00", align 1
@__PRETTY_FUNCTION__.scsi_write_complete_noio = private unnamed_addr constant [50 x i8] c"void scsi_write_complete_noio(SCSIDiskReq *, int)\00", align 1
@_TRACE_SCSI_DISK_WRITE_COMPLETE_NOIO_DSTATE = external global i16, align 2
@.str.37 = private unnamed_addr constant [77 x i8] c"%d@%zu.%06zu:scsi_disk_write_complete_noio Write complete tag=0x%x more=%zd\0A\00", align 1
@.str.38 = private unnamed_addr constant [64 x i8] c"scsi_disk_write_complete_noio Write complete tag=0x%x more=%zd\0A\00", align 1

; Function Attrs: nounwind sspstrong uwtable
define internal zeroext i1 @qemu_loglevel_mask(i32 noundef %mask) #0 {
entry:
  %mask.addr = alloca i32, align 4
  store i32 %mask, ptr %mask.addr, align 4
  %0 = load i32, ptr @qemu_loglevel, align 4
  %1 = load i32, ptr %mask.addr, align 4
  %and = and i32 %0, %1
  %cmp = icmp ne i32 %and, 0
  ret i1 %cmp
}

; Function Attrs: nounwind sspstrong uwtable
define internal void @_nocheck__trace_scsi_disk_write_complete_noio(i32 noundef %tag, i64 noundef %size) #0 {
entry:
  %tag.addr = alloca i32, align 4
  %size.addr = alloca i64, align 8
  %_now = alloca %struct.timeval, align 8
  store i32 %tag, ptr %tag.addr, align 4
  store i64 %size, ptr %size.addr, align 8
  %0 = load i32, ptr @trace_events_enabled_count, align 4
  %tobool = icmp ne i32 %0, 0
  %lnot = xor i1 %tobool, true
  %lnot1 = xor i1 %lnot, true
  %lnot.ext = zext i1 %lnot1 to i32
  %conv = sext i32 %lnot.ext to i64
  %tobool2 = icmp ne i64 %conv, 0
  br i1 %tobool2, label %land.lhs.true, label %if.end11

land.lhs.true:                                    ; preds = %entry
  %1 = load i16, ptr @_TRACE_SCSI_DISK_WRITE_COMPLETE_NOIO_DSTATE, align 2
  %conv3 = zext i16 %1 to i32
  %tobool4 = icmp ne i32 %conv3, 0
  br i1 %tobool4, label %land.lhs.true5, label %if.end11

land.lhs.true5:                                   ; preds = %land.lhs.true
  %call = call zeroext i1 @qemu_loglevel_mask(i32 noundef 32768)
  br i1 %call, label %if.then, label %if.end11

if.then:                                          ; preds = %land.lhs.true5
  %2 = load i8, ptr @message_with_timestamp, align 1
  %tobool7 = trunc i8 %2 to i1
  br i1 %tobool7, label %if.then8, label %if.else

if.then8:                                         ; preds = %if.then
  %call9 = call i32 @gettimeofday(ptr noundef %_now, ptr noundef null) #13
  %call10 = call i32 @qemu_get_thread_id()
  %tv_sec = getelementptr inbounds %struct.timeval, ptr %_now, i32 0, i32 0
  %3 = load i64, ptr %tv_sec, align 8
  %tv_usec = getelementptr inbounds %struct.timeval, ptr %_now, i32 0, i32 1
  %4 = load i64, ptr %tv_usec, align 8
  %5 = load i32, ptr %tag.addr, align 4
  %6 = load i64, ptr %size.addr, align 8
  call void (ptr, ...) @qemu_log(ptr noundef @.str.37, i32 noundef %call10, i64 noundef %3, i64 noundef %4, i32 noundef %5, i64 noundef %6)
  br label %if.end

if.else:                                          ; preds = %if.then
  %7 = load i32, ptr %tag.addr, align 4
  %8 = load i64, ptr %size.addr, align 8
  call void (ptr, ...) @qemu_log(ptr noundef @.str.38, i32 noundef %7, i64 noundef %8)
  br label %if.end

if.end:                                           ; preds = %if.else, %if.then8
  br label %if.end11

if.end11:                                         ; preds = %if.end, %land.lhs.true5, %land.lhs.true, %entry
  ret void
}

; Function Attrs: nounwind sspstrong uwtable
define internal void @trace_scsi_disk_write_complete_noio(i32 noundef %tag, i64 noundef %size) #0 {
entry:
  %tag.addr = alloca i32, align 4
  %size.addr = alloca i64, align 8
  store i32 %tag, ptr %tag.addr, align 4
  store i64 %size, ptr %size.addr, align 8
  %0 = load i32, ptr %tag.addr, align 4
  %1 = load i64, ptr %size.addr, align 8
  call void @_nocheck__trace_scsi_disk_write_complete_noio(i32 noundef %0, i64 noundef %1)
  ret void
}

; Function Attrs: nounwind sspstrong uwtable
define internal void @scsi_init_iovec(ptr noundef %r, i64 noundef %size) #0 {
entry:
  %r.addr = alloca ptr, align 8
  %size.addr = alloca i64, align 8
  %s = alloca ptr, align 8
  %tmp = alloca ptr, align 8
  %__mptr = alloca ptr, align 8
  %tmp1 = alloca ptr, align 8
  %_a5 = alloca i64, align 8
  %_b6 = alloca i64, align 8
  %tmp9 = alloca i64, align 8
  store ptr %r, ptr %r.addr, align 8
  store i64 %size, ptr %size.addr, align 8
  %0 = load ptr, ptr %r.addr, align 8
  %req = getelementptr inbounds %struct.SCSIDiskReq, ptr %0, i32 0, i32 0
  %dev = getelementptr inbounds %struct.SCSIRequest, ptr %req, i32 0, i32 1
  %1 = load ptr, ptr %dev, align 8
  store ptr %1, ptr %__mptr, align 8
  %2 = load ptr, ptr %__mptr, align 8
  %add.ptr = getelementptr i8, ptr %2, i64 0
  store ptr %add.ptr, ptr %tmp1, align 8
  %3 = load ptr, ptr %tmp1, align 8
  store ptr %3, ptr %tmp, align 8
  %4 = load ptr, ptr %tmp, align 8
  store ptr %4, ptr %s, align 8
  %5 = load ptr, ptr %r.addr, align 8
  %iov = getelementptr inbounds %struct.SCSIDiskReq, ptr %5, i32 0, i32 6
  %iov_base = getelementptr inbounds %struct.iovec, ptr %iov, i32 0, i32 0
  %6 = load ptr, ptr %iov_base, align 8
  %tobool = icmp ne ptr %6, null
  br i1 %tobool, label %if.end, label %if.then

if.then:                                          ; preds = %entry
  %7 = load i64, ptr %size.addr, align 8
  %conv = trunc i64 %7 to i32
  %8 = load ptr, ptr %r.addr, align 8
  %buflen = getelementptr inbounds %struct.SCSIDiskReq, ptr %8, i32 0, i32 3
  store i32 %conv, ptr %buflen, align 4
  %9 = load ptr, ptr %s, align 8
  %qdev = getelementptr inbounds %struct.SCSIDiskState, ptr %9, i32 0, i32 0
  %conf = getelementptr inbounds %struct.SCSIDevice, ptr %qdev, i32 0, i32 4
  %blk = getelementptr inbounds %struct.BlockConf, ptr %conf, i32 0, i32 0
  %10 = load ptr, ptr %blk, align 8
  %11 = load ptr, ptr %r.addr, align 8
  %buflen2 = getelementptr inbounds %struct.SCSIDiskReq, ptr %11, i32 0, i32 3
  %12 = load i32, ptr %buflen2, align 4
  %conv3 = zext i32 %12 to i64
  %call = call ptr @blk_blockalign(ptr noundef %10, i64 noundef %conv3)
  %13 = load ptr, ptr %r.addr, align 8
  %iov4 = getelementptr inbounds %struct.SCSIDiskReq, ptr %13, i32 0, i32 6
  %iov_base5 = getelementptr inbounds %struct.iovec, ptr %iov4, i32 0, i32 0
  store ptr %call, ptr %iov_base5, align 8
  br label %if.end

if.end:                                           ; preds = %if.then, %entry
  %14 = load ptr, ptr %r.addr, align 8
  %sector_count = getelementptr inbounds %struct.SCSIDiskReq, ptr %14, i32 0, i32 2
  %15 = load i32, ptr %sector_count, align 8
  %conv6 = zext i32 %15 to i64
  %mul = mul i64 %conv6, 512
  store i64 %mul, ptr %_a5, align 8
  %16 = load ptr, ptr %r.addr, align 8
  %buflen7 = getelementptr inbounds %struct.SCSIDiskReq, ptr %16, i32 0, i32 3
  %17 = load i32, ptr %buflen7, align 4
  %conv8 = zext i32 %17 to i64
  store i64 %conv8, ptr %_b6, align 8
  %18 = load i64, ptr %_a5, align 8
  %19 = load i64, ptr %_b6, align 8
  %cmp = icmp ult i64 %18, %19
  br i1 %cmp, label %cond.true, label %cond.false

cond.true:                                        ; preds = %if.end
  %20 = load i64, ptr %_a5, align 8
  br label %cond.end

cond.false:                                       ; preds = %if.end
  %21 = load i64, ptr %_b6, align 8
  br label %cond.end

cond.end:                                         ; preds = %cond.false, %cond.true
  %cond = phi i64 [ %20, %cond.true ], [ %21, %cond.false ]
  store i64 %cond, ptr %tmp9, align 8
  %22 = load i64, ptr %tmp9, align 8
  %23 = load ptr, ptr %r.addr, align 8
  %iov11 = getelementptr inbounds %struct.SCSIDiskReq, ptr %23, i32 0, i32 6
  %iov_len = getelementptr inbounds %struct.iovec, ptr %iov11, i32 0, i32 1
  store i64 %22, ptr %iov_len, align 8
  %24 = load ptr, ptr %r.addr, align 8
  %qiov = getelementptr inbounds %struct.SCSIDiskReq, ptr %24, i32 0, i32 7
  %25 = load ptr, ptr %r.addr, align 8
  %iov12 = getelementptr inbounds %struct.SCSIDiskReq, ptr %25, i32 0, i32 6
  call void @qemu_iovec_init_external(ptr noundef %qiov, ptr noundef %iov12, i32 noundef 1)
  ret void
}

; Function Attrs: nounwind sspstrong uwtable
define internal zeroext i1 @scsi_disk_req_check_error(ptr noundef %r, i32 noundef %ret, i1 noundef zeroext %acct_failed) #0 {
entry:
  %retval = alloca i1, align 1
  %r.addr = alloca ptr, align 8
  %ret.addr = alloca i32, align 4
  %acct_failed.addr = alloca i8, align 1
  store ptr %r, ptr %r.addr, align 8
  store i32 %ret, ptr %ret.addr, align 4
  %frombool = zext i1 %acct_failed to i8
  store i8 %frombool, ptr %acct_failed.addr, align 1
  %0 = load ptr, ptr %r.addr, align 8
  %req = getelementptr inbounds %struct.SCSIDiskReq, ptr %0, i32 0, i32 0
  %io_canceled = getelementptr inbounds %struct.SCSIRequest, ptr %req, i32 0, i32 15
  %1 = load i8, ptr %io_canceled, align 1
  %tobool = trunc i8 %1 to i1
  br i1 %tobool, label %if.then, label %if.end

if.then:                                          ; preds = %entry
  %2 = load ptr, ptr %r.addr, align 8
  %req1 = getelementptr inbounds %struct.SCSIDiskReq, ptr %2, i32 0, i32 0
  call void @scsi_req_cancel_complete(ptr noundef %req1)
  store i1 true, ptr %retval, align 1
  br label %return

if.end:                                           ; preds = %entry
  %3 = load i32, ptr %ret.addr, align 4
  %cmp = icmp slt i32 %3, 0
  br i1 %cmp, label %if.then2, label %if.end4

if.then2:                                         ; preds = %if.end
  %4 = load ptr, ptr %r.addr, align 8
  %5 = load i32, ptr %ret.addr, align 4
  %6 = load i8, ptr %acct_failed.addr, align 1
  %tobool3 = trunc i8 %6 to i1
  %call = call zeroext i1 @scsi_handle_rw_error(ptr noundef %4, i32 noundef %5, i1 noundef zeroext %tobool3)
  store i1 %call, ptr %retval, align 1
  br label %return

if.end4:                                          ; preds = %if.end
  store i1 false, ptr %retval, align 1
  br label %return

return:                                           ; preds = %if.end4, %if.then2, %if.then
  %7 = load i1, ptr %retval, align 1
  ret i1 %7
}

; Function Attrs: nounwind sspstrong uwtable
define internal void @scsi_write_complete_noio(ptr noundef %r, i32 noundef %ret) #0 {
entry:
  %r.addr = alloca ptr, align 8
  %ret.addr = alloca i32, align 4
  %n = alloca i32, align 4
  store ptr %r, ptr %r.addr, align 8
  store i32 %ret, ptr %ret.addr, align 4
  %0 = load ptr, ptr %r.addr, align 8
  %req = getelementptr inbounds %struct.SCSIDiskReq, ptr %0, i32 0, i32 0
  %aiocb = getelementptr inbounds %struct.SCSIRequest, ptr %req, i32 0, i32 18
  %1 = load ptr, ptr %aiocb, align 8
  %cmp = icmp eq ptr %1, null
  br i1 %cmp, label %if.then, label %if.else

if.then:                                          ; preds = %entry
  br label %if.end

if.else:                                          ; preds = %entry
  call void @__assert_fail(ptr noundef @.str.26, ptr noundef @.str.5, i32 noundef 510, ptr noundef @__PRETTY_FUNCTION__.scsi_write_complete_noio) #11
  unreachable

if.end:                                           ; preds = %if.then
  %2 = load ptr, ptr %r.addr, align 8
  %3 = load i32, ptr %ret.addr, align 4
  %call = call zeroext i1 @scsi_disk_req_check_error(ptr noundef %2, i32 noundef %3, i1 noundef zeroext false)
  br i1 %call, label %if.then1, label %if.end2

if.then1:                                         ; preds = %if.end
  br label %done

if.end2:                                          ; preds = %if.end
  %4 = load ptr, ptr %r.addr, align 8
  %qiov = getelementptr inbounds %struct.SCSIDiskReq, ptr %4, i32 0, i32 7
  %5 = getelementptr inbounds %struct.QEMUIOVector, ptr %qiov, i32 0, i32 2
  %size = getelementptr inbounds %struct.anon.3, ptr %5, i32 0, i32 1
  %6 = load i64, ptr %size, align 8
  %div = udiv i64 %6, 512
  %conv = trunc i64 %div to i32
  store i32 %conv, ptr %n, align 4
  %7 = load i32, ptr %n, align 4
  %conv3 = zext i32 %7 to i64
  %8 = load ptr, ptr %r.addr, align 8
  %sector = getelementptr inbounds %struct.SCSIDiskReq, ptr %8, i32 0, i32 1
  %9 = load i64, ptr %sector, align 8
  %add = add i64 %9, %conv3
  store i64 %add, ptr %sector, align 8
  %10 = load i32, ptr %n, align 4
  %11 = load ptr, ptr %r.addr, align 8
  %sector_count = getelementptr inbounds %struct.SCSIDiskReq, ptr %11, i32 0, i32 2
  %12 = load i32, ptr %sector_count, align 8
  %sub = sub i32 %12, %10
  store i32 %sub, ptr %sector_count, align 8
  %13 = load ptr, ptr %r.addr, align 8
  %sector_count4 = getelementptr inbounds %struct.SCSIDiskReq, ptr %13, i32 0, i32 2
  %14 = load i32, ptr %sector_count4, align 8
  %cmp5 = icmp eq i32 %14, 0
  br i1 %cmp5, label %if.then7, label %if.else8

if.then7:                                         ; preds = %if.end2
  %15 = load ptr, ptr %r.addr, align 8
  call void @scsi_write_do_fua(ptr noundef %15)
  br label %return

if.else8:                                         ; preds = %if.end2
  %16 = load ptr, ptr %r.addr, align 8
  call void @scsi_init_iovec(ptr noundef %16, i64 noundef 131072)
  %17 = load ptr, ptr %r.addr, align 8
  %req9 = getelementptr inbounds %struct.SCSIDiskReq, ptr %17, i32 0, i32 0
  %tag = getelementptr inbounds %struct.SCSIRequest, ptr %req9, i32 0, i32 4
  %18 = load i32, ptr %tag, align 4
  %19 = load ptr, ptr %r.addr, align 8
  %qiov10 = getelementptr inbounds %struct.SCSIDiskReq, ptr %19, i32 0, i32 7
  %20 = getelementptr inbounds %struct.QEMUIOVector, ptr %qiov10, i32 0, i32 2
  %size11 = getelementptr inbounds %struct.anon.3, ptr %20, i32 0, i32 1
  %21 = load i64, ptr %size11, align 8
  call void @trace_scsi_disk_write_complete_noio(i32 noundef %18, i64 noundef %21)
  %22 = load ptr, ptr %r.addr, align 8
  %req12 = getelementptr inbounds %struct.SCSIDiskReq, ptr %22, i32 0, i32 0
  %23 = load ptr, ptr %r.addr, align 8
  %qiov13 = getelementptr inbounds %struct.SCSIDiskReq, ptr %23, i32 0, i32 7
  %24 = getelementptr inbounds %struct.QEMUIOVector, ptr %qiov13, i32 0, i32 2
  %size14 = getelementptr inbounds %struct.anon.3, ptr %24, i32 0, i32 1
  %25 = load i64, ptr %size14, align 8
  %conv15 = trunc i64 %25 to i32
  call void @scsi_req_data(ptr noundef %req12, i32 noundef %conv15)
  br label %if.end16

if.end16:                                         ; preds = %if.else8
  br label %done

done:                                             ; preds = %if.end16, %if.then1
  %26 = load ptr, ptr %r.addr, align 8
  %req17 = getelementptr inbounds %struct.SCSIDiskReq, ptr %26, i32 0, i32 0
  call void @scsi_req_unref(ptr noundef %req17)
  br label %return

return:                                           ; preds = %done, %if.then7
  ret void
}