; Function Attrs: nounwind sspstrong uwtable
define internal fastcc void @scsi_write_complete_noio(ptr noundef %r, i32 noundef %ret) unnamed_addr #0 {
entry:
  %_now.i.i = alloca %struct.timeval, align 8
  %aiocb = getelementptr inbounds nuw i8, ptr %r, i64 376
  %0 = load ptr, ptr %aiocb, align 8
  %cmp = icmp eq ptr %0, null
  br i1 %cmp, label %if.end, label %if.else

if.else:                                          ; preds = %entry
  tail call void @__assert_fail(ptr noundef nonnull @.str.26, ptr noundef nonnull @.str.5, i32 noundef 510, ptr noundef nonnull @__PRETTY_FUNCTION__.scsi_write_complete_noio) #19
  unreachable

if.end:                                           ; preds = %entry
  %io_canceled.i = getelementptr inbounds nuw i8, ptr %r, i64 369
  %1 = load i8, ptr %io_canceled.i, align 1
  %tobool.i = trunc i8 %1 to i1
  br i1 %tobool.i, label %scsi_disk_req_check_error.exit.thread, label %if.end.i

scsi_disk_req_check_error.exit.thread:            ; preds = %if.end
  tail call void @scsi_req_cancel_complete(ptr noundef nonnull %r) #18
  br label %done

if.end.i:                                         ; preds = %if.end
  %cmp.i = icmp slt i32 %ret, 0
  br i1 %cmp.i, label %scsi_disk_req_check_error.exit, label %if.end2

scsi_disk_req_check_error.exit:                   ; preds = %if.end.i
  %call.i = tail call fastcc zeroext i1 @scsi_handle_rw_error(ptr noundef nonnull %r, i32 noundef %ret, i1 noundef zeroext false)
  br i1 %call.i, label %done, label %if.end2

if.end2:                                          ; preds = %if.end.i, %scsi_disk_req_check_error.exit
  %size = getelementptr inbounds nuw i8, ptr %r, i64 480
  %2 = load i64, ptr %size, align 8
  %div14 = lshr i64 %2, 9
  %conv = trunc i64 %div14 to i32
  %conv3 = and i64 %div14, 4294967295
  %sector = getelementptr inbounds nuw i8, ptr %r, i64 408
  %3 = load i64, ptr %sector, align 8
  %add = add i64 %conv3, %3
  store i64 %add, ptr %sector, align 8
  %sector_count = getelementptr inbounds nuw i8, ptr %r, i64 416
  %4 = load i32, ptr %sector_count, align 8
  %sub = sub i32 %4, %conv
  store i32 %sub, ptr %sector_count, align 8
  %cmp5 = icmp eq i32 %4, %conv
  br i1 %cmp5, label %if.then7, label %if.else8

if.then7:                                         ; preds = %if.end2
  tail call fastcc void @scsi_write_do_fua(ptr noundef nonnull %r)
  br label %return

if.else8:                                         ; preds = %if.end2
  %iov.i = getelementptr inbounds nuw i8, ptr %r, i64 432
  %5 = load ptr, ptr %iov.i, align 8
  %tobool.not.i = icmp eq ptr %5, null
  br i1 %tobool.not.i, label %if.then.i16, label %scsi_init_iovec.exit

if.then.i16:                                      ; preds = %if.else8
  %dev.i = getelementptr inbounds nuw i8, ptr %r, i64 8
  %6 = load ptr, ptr %dev.i, align 8
  %buflen.i = getelementptr inbounds nuw i8, ptr %r, i64 420
  store i32 131072, ptr %buflen.i, align 4
  %conf.i = getelementptr inbounds nuw i8, ptr %6, i64 184
  %7 = load ptr, ptr %conf.i, align 8
  %call.i17 = tail call ptr @blk_blockalign(ptr noundef %7, i64 noundef 131072) #18
  store ptr %call.i17, ptr %iov.i, align 8
  %.pre = load i32, ptr %sector_count, align 8
  br label %scsi_init_iovec.exit

scsi_init_iovec.exit:                             ; preds = %if.else8, %if.then.i16
  %8 = phi i32 [ %sub, %if.else8 ], [ %.pre, %if.then.i16 ]
  %conv6.i = zext i32 %8 to i64
  %mul.i = shl nuw nsw i64 %conv6.i, 9
  %buflen7.i = getelementptr inbounds nuw i8, ptr %r, i64 420
  %9 = load i32, ptr %buflen7.i, align 4
  %conv8.i = zext i32 %9 to i64
  %cond.i = tail call i64 @llvm.umin.i64(i64 %mul.i, i64 %conv8.i)
  %iov_len.i = getelementptr inbounds nuw i8, ptr %r, i64 440
  store i64 %cond.i, ptr %iov_len.i, align 8
  %qiov.i = getelementptr inbounds nuw i8, ptr %r, i64 448
  tail call void @qemu_iovec_init_external(ptr noundef nonnull %qiov.i, ptr noundef nonnull %iov.i, i32 noundef 1) #18
  %tag = getelementptr inbounds nuw i8, ptr %r, i64 28
  %10 = load i32, ptr %tag, align 4
  %11 = load i64, ptr %size, align 8
  call void @llvm.lifetime.start.p0(i64 16, ptr nonnull %_now.i.i)
  %12 = load i32, ptr @trace_events_enabled_count, align 4
  %tobool.i.i = icmp ne i32 %12, 0
  %13 = load i16, ptr @_TRACE_SCSI_DISK_WRITE_COMPLETE_NOIO_DSTATE, align 2
  %tobool4.i.i = icmp ne i16 %13, 0
  %or.cond.i.i = select i1 %tobool.i.i, i1 %tobool4.i.i, i1 false
  br i1 %or.cond.i.i, label %land.lhs.true5.i.i, label %trace_scsi_disk_write_complete_noio.exit

land.lhs.true5.i.i:                               ; preds = %scsi_init_iovec.exit
  %14 = load i32, ptr @qemu_loglevel, align 4
  %and.i.i.i = and i32 %14, 32768
  %cmp.i.not.i.i = icmp eq i32 %and.i.i.i, 0
  br i1 %cmp.i.not.i.i, label %trace_scsi_disk_write_complete_noio.exit, label %if.then.i.i

if.then.i.i:                                      ; preds = %land.lhs.true5.i.i
  %15 = load i8, ptr @message_with_timestamp, align 1
  %tobool7.i.i = trunc i8 %15 to i1
  br i1 %tobool7.i.i, label %if.then8.i.i, label %if.else.i.i

if.then8.i.i:                                     ; preds = %if.then.i.i
  %call9.i.i = call i32 @gettimeofday(ptr noundef nonnull %_now.i.i, ptr noundef null) #18
  %call10.i.i = tail call i32 @qemu_get_thread_id() #18
  %16 = load i64, ptr %_now.i.i, align 8
  %tv_usec.i.i = getelementptr inbounds nuw i8, ptr %_now.i.i, i64 8
  %17 = load i64, ptr %tv_usec.i.i, align 8
  tail call void (ptr, ...) @qemu_log(ptr noundef nonnull @.str.37, i32 noundef %call10.i.i, i64 noundef %16, i64 noundef %17, i32 noundef %10, i64 noundef %11) #18
  br label %trace_scsi_disk_write_complete_noio.exit

if.else.i.i:                                      ; preds = %if.then.i.i
  tail call void (ptr, ...) @qemu_log(ptr noundef nonnull @.str.38, i32 noundef %10, i64 noundef %11) #18
  br label %trace_scsi_disk_write_complete_noio.exit

trace_scsi_disk_write_complete_noio.exit:         ; preds = %scsi_init_iovec.exit, %land.lhs.true5.i.i, %if.then8.i.i, %if.else.i.i
  call void @llvm.lifetime.end.p0(i64 16, ptr nonnull %_now.i.i)
  %18 = load i64, ptr %size, align 8
  %conv15 = trunc i64 %18 to i32
  tail call void @scsi_req_data(ptr noundef nonnull %r, i32 noundef %conv15) #18
  br label %done

done:                                             ; preds = %scsi_disk_req_check_error.exit.thread, %scsi_disk_req_check_error.exit, %trace_scsi_disk_write_complete_noio.exit
  tail call void @scsi_req_unref(ptr noundef nonnull %r) #18
  br label %return

return:                                           ; preds = %done, %if.then7
  ret void
}